target datalayout = "e-m:e-p270:32:32-p271:32:32-p272:64:64-i64:64-i128:128-f80:128-n8:16:32:64-S128"
target triple = "x86_64-pc-linux-gnu"

%struct.AVOption = type { ptr, ptr, i32, i32, %union.anon, double, double, i32, ptr }
%union.anon = type { i64 }
%struct.AVRational = type { i32, i32 }

@.str.29 = private unnamed_addr constant [52 x i8] c"Value %f for parameter '%s' out of range [%g - %g]\0A\00", align 1
@.str.99 = private unnamed_addr constant [71 x i8] c"Value %f for parameter '%s' is not a valid set of 32bit integer flags\0A\00", align 1

; Function Attrs: nounwind uwtable
define internal i32 @write_number(ptr noundef %0, ptr noundef %1, ptr noundef %2, double noundef %3, i32 noundef %4, i64 noundef %5) #0 {
  %7 = alloca i32, align 4
  %8 = alloca ptr, align 8
  %9 = alloca ptr, align 8
  %10 = alloca ptr, align 8
  %11 = alloca double, align 8
  %12 = alloca i32, align 4
  %13 = alloca i64, align 8
  %14 = alloca i32, align 4
  %15 = alloca i32, align 4
  %16 = alloca double, align 8
  %17 = alloca double, align 8
  %18 = alloca double, align 8
  %19 = alloca %struct.AVRational, align 4
  %20 = alloca %struct.AVRational, align 4
  store ptr %0, ptr %8, align 8, !tbaa !4
  store ptr %1, ptr %9, align 8, !tbaa !8
  store ptr %2, ptr %10, align 8, !tbaa !4
  store double %3, ptr %11, align 8, !tbaa !53
  store i32 %4, ptr %12, align 4, !tbaa !20
  store i64 %5, ptr %13, align 8, !tbaa !39
  call void @llvm.lifetime.start.p0(i64 4, ptr %14) #11
  %21 = load ptr, ptr %9, align 8, !tbaa !8
  %22 = getelementptr inbounds nuw %struct.AVOption, ptr %21, i32 0, i32 3
  %23 = load i32, ptr %22, align 4, !tbaa !21
  %24 = and i32 %23, -65537
  store i32 %24, ptr %14, align 4, !tbaa !20
  %25 = load i32, ptr %14, align 4, !tbaa !20
  %26 = icmp ne i32 %25, 1
  br i1 %26, label %27, label %88

27:                                               ; preds = %6
  %28 = load i32, ptr %12, align 4, !tbaa !20
  %29 = icmp ne i32 %28, 0
  br i1 %29, label %30, label %54

30:                                               ; preds = %27
  %31 = load ptr, ptr %9, align 8, !tbaa !8
  %32 = getelementptr inbounds nuw %struct.AVOption, ptr %31, i32 0, i32 6
  %33 = load double, ptr %32, align 8, !tbaa !50
  %34 = load i32, ptr %12, align 4, !tbaa !20
  %35 = sitofp i32 %34 to double
  %36 = fmul nsz double %33, %35
  %37 = load double, ptr %11, align 8, !tbaa !53
  %38 = load i64, ptr %13, align 8, !tbaa !39
  %39 = sitofp i64 %38 to double
  %40 = fmul nsz double %37, %39
  %41 = fcmp nsz olt double %36, %40
  br i1 %41, label %54, label %42

42:                                               ; preds = %30
  %43 = load ptr, ptr %9, align 8, !tbaa !8
  %44 = getelementptr inbounds nuw %struct.AVOption, ptr %43, i32 0, i32 5
  %45 = load double, ptr %44, align 8, !tbaa !49
  %46 = load i32, ptr %12, align 4, !tbaa !20
  %47 = sitofp i32 %46 to double
  %48 = fmul nsz double %45, %47
  %49 = load double, ptr %11, align 8, !tbaa !53
  %50 = load i64, ptr %13, align 8, !tbaa !39
  %51 = sitofp i64 %50 to double
  %52 = fmul nsz double %49, %51
  %53 = fcmp nsz ogt double %48, %52
  br i1 %53, label %54, label %88

54:                                               ; preds = %42, %30, %27
  %55 = load i32, ptr %12, align 4, !tbaa !20
  %56 = icmp ne i32 %55, 0
  br i1 %56, label %57, label %65

57:                                               ; preds = %54
  %58 = load double, ptr %11, align 8, !tbaa !53
  %59 = load i64, ptr %13, align 8, !tbaa !39
  %60 = sitofp i64 %59 to double
  %61 = fmul nsz double %58, %60
  %62 = load i32, ptr %12, align 4, !tbaa !20
  %63 = sitofp i32 %62 to double
  %64 = fdiv nsz double %61, %63
  br label %75

65:                                               ; preds = %54
  %66 = load double, ptr %11, align 8, !tbaa !53
  %67 = fcmp nsz une double %66, 0.000000e+00
  br i1 %67, label %68, label %71

68:                                               ; preds = %65
  %69 = load i64, ptr %13, align 8, !tbaa !39
  %70 = icmp ne i64 %69, 0
  br label %71

71:                                               ; preds = %68, %65
  %72 = phi i1 [ false, %65 ], [ %70, %68 ]
  %73 = select nsz i1 %72, float 0x7FF0000000000000, float 0x7FF8000000000000
  %74 = fpext nsz float %73 to double
  br label %75

75:                                               ; preds = %71, %57
  %76 = phi nsz double [ %64, %57 ], [ %74, %71 ]
  store double %76, ptr %11, align 8, !tbaa !53
  %77 = load ptr, ptr %8, align 8, !tbaa !4
  %78 = load double, ptr %11, align 8, !tbaa !53
  %79 = load ptr, ptr %9, align 8, !tbaa !8
  %80 = getelementptr inbounds nuw %struct.AVOption, ptr %79, i32 0, i32 0
  %81 = load ptr, ptr %80, align 8, !tbaa !16
  %82 = load ptr, ptr %9, align 8, !tbaa !8
  %83 = getelementptr inbounds nuw %struct.AVOption, ptr %82, i32 0, i32 5
  %84 = load double, ptr %83, align 8, !tbaa !49
  %85 = load ptr, ptr %9, align 8, !tbaa !8
  %86 = getelementptr inbounds nuw %struct.AVOption, ptr %85, i32 0, i32 6
  %87 = load double, ptr %86, align 8, !tbaa !50
  call void (ptr, i32, ptr, ...) @av_log(ptr noundef %77, i32 noundef 16, ptr noundef @.str.29, double noundef %78, ptr noundef %81, double noundef %84, double noundef %87)
  store i32 -34, ptr %7, align 4
  store i32 1, ptr %15, align 4
  br label %256

88:                                               ; preds = %42, %6
  %89 = load i32, ptr %14, align 4, !tbaa !20
  %90 = icmp eq i32 %89, 1
  br i1 %90, label %91, label %126

91:                                               ; preds = %88
  call void @llvm.lifetime.start.p0(i64 8, ptr %16) #11
  %92 = load double, ptr %11, align 8, !tbaa !53
  %93 = load i64, ptr %13, align 8, !tbaa !39
  %94 = sitofp i64 %93 to double
  %95 = fmul nsz double %92, %94
  %96 = load i32, ptr %12, align 4, !tbaa !20
  %97 = sitofp i32 %96 to double
  %98 = fdiv nsz double %95, %97
  store double %98, ptr %16, align 8, !tbaa !53
  %99 = load double, ptr %16, align 8, !tbaa !53
  %100 = fcmp nsz olt double %99, -1.500000e+00
  br i1 %100, label %110, label %101

101:                                              ; preds = %91
  %102 = load double, ptr %16, align 8, !tbaa !53
  %103 = fcmp nsz ogt double %102, 0x41EFFFFFFFF00000
  br i1 %103, label %110, label %104

104:                                              ; preds = %101
  %105 = load double, ptr %16, align 8, !tbaa !53
  %106 = fmul nsz double %105, 2.560000e+02
  %107 = call i64 @llvm.llrint.i64.f64(double %106)
  %108 = and i64 %107, 255
  %109 = icmp ne i64 %108, 0
  br i1 %109, label %110, label %122

110:                                              ; preds = %104, %101, %91
  %111 = load ptr, ptr %8, align 8, !tbaa !4
  %112 = load double, ptr %11, align 8, !tbaa !53
  %113 = load i64, ptr %13, align 8, !tbaa !39
  %114 = sitofp i64 %113 to double
  %115 = fmul nsz double %112, %114
  %116 = load i32, ptr %12, align 4, !tbaa !20
  %117 = sitofp i32 %116 to double
  %118 = fdiv nsz double %115, %117
  %119 = load ptr, ptr %9, align 8, !tbaa !8
  %120 = getelementptr inbounds nuw %struct.AVOption, ptr %119, i32 0, i32 0
  %121 = load ptr, ptr %120, align 8, !tbaa !16
  call void (ptr, i32, ptr, ...) @av_log(ptr noundef %111, i32 noundef 16, ptr noundef @.str.99, double noundef %118, ptr noundef %121)
  store i32 -34, ptr %7, align 4
  store i32 1, ptr %15, align 4
  br label %123

122:                                              ; preds = %104
  store i32 0, ptr %15, align 4
  br label %123

123:                                              ; preds = %122, %110
  call void @llvm.lifetime.end.p0(i64 8, ptr %16) #11
  %124 = load i32, ptr %15, align 4
  switch i32 %124, label %256 [
    i32 0, label %125
  ]

125:                                              ; preds = %123
  br label %126

126:                                              ; preds = %125, %88
  %127 = load i32, ptr %14, align 4, !tbaa !20
  switch i32 %127, label %254 [
    i32 13, label %128
    i32 14, label %138
    i32 18, label %148
    i32 1, label %148
    i32 2, label %148
    i32 20, label %148
    i32 16, label %158
    i32 3, label %158
    i32 10, label %177
    i32 5, label %208
    i32 4, label %218
    i32 7, label %227
    i32 15, label %227
  ]

128:                                              ; preds = %126
  %129 = load double, ptr %11, align 8, !tbaa !53
  %130 = load i32, ptr %12, align 4, !tbaa !20
  %131 = sitofp i32 %130 to double
  %132 = fdiv nsz double %129, %131
  %133 = call i64 @llvm.llrint.i64.f64(double %132)
  %134 = load i64, ptr %13, align 8, !tbaa !39
  %135 = mul nsw i64 %133, %134
  %136 = trunc i64 %135 to i32
  %137 = load ptr, ptr %10, align 8, !tbaa !4
  store i32 %136, ptr %137, align 4, !tbaa !20
  br label %255

138:                                              ; preds = %126
  %139 = load double, ptr %11, align 8, !tbaa !53
  %140 = load i32, ptr %12, align 4, !tbaa !20
  %141 = sitofp i32 %140 to double
  %142 = fdiv nsz double %139, %141
  %143 = call i64 @llvm.llrint.i64.f64(double %142)
  %144 = load i64, ptr %13, align 8, !tbaa !39
  %145 = mul nsw i64 %143, %144
  %146 = trunc i64 %145 to i32
  %147 = load ptr, ptr %10, align 8, !tbaa !4
  store i32 %146, ptr %147, align 4, !tbaa !20
  br label %255

148:                                              ; preds = %126, %126, %126, %126
  %149 = load double, ptr %11, align 8, !tbaa !53
  %150 = load i32, ptr %12, align 4, !tbaa !20
  %151 = sitofp i32 %150 to double
  %152 = fdiv nsz double %149, %151
  %153 = call i64 @llvm.llrint.i64.f64(double %152)
  %154 = load i64, ptr %13, align 8, !tbaa !39
  %155 = mul nsw i64 %153, %154
  %156 = trunc i64 %155 to i32
  %157 = load ptr, ptr %10, align 8, !tbaa !4
  store i32 %156, ptr %157, align 4, !tbaa !20
  br label %255

158:                                              ; preds = %126, %126
  call void @llvm.lifetime.start.p0(i64 8, ptr %17) #11
  %159 = load double, ptr %11, align 8, !tbaa !53
  %160 = load i32, ptr %12, align 4, !tbaa !20
  %161 = sitofp i32 %160 to double
  %162 = fdiv nsz double %159, %161
  store double %162, ptr %17, align 8, !tbaa !53
  %163 = load i64, ptr %13, align 8, !tbaa !39
  %164 = icmp eq i64 %163, 1
  br i1 %164, label %165, label %170

165:                                              ; preds = %158
  %166 = load double, ptr %17, align 8, !tbaa !53
  %167 = fcmp nsz oeq double %166, 0x43E0000000000000
  br i1 %167, label %168, label %170

168:                                              ; preds = %165
  %169 = load ptr, ptr %10, align 8, !tbaa !4
  store i64 9223372036854775807, ptr %169, align 8, !tbaa !39
  br label %176

170:                                              ; preds = %165, %158
  %171 = load double, ptr %17, align 8, !tbaa !53
  %172 = call i64 @llvm.llrint.i64.f64(double %171)
  %173 = load i64, ptr %13, align 8, !tbaa !39
  %174 = mul nsw i64 %172, %173
  %175 = load ptr, ptr %10, align 8, !tbaa !4
  store i64 %174, ptr %175, align 8, !tbaa !39
  br label %176

176:                                              ; preds = %170, %168
  store i32 2, ptr %15, align 4
  call void @llvm.lifetime.end.p0(i64 8, ptr %17) #11
  br label %255

177:                                              ; preds = %126
  call void @llvm.lifetime.start.p0(i64 8, ptr %18) #11
  %178 = load double, ptr %11, align 8, !tbaa !53
  %179 = load i32, ptr %12, align 4, !tbaa !20
  %180 = sitofp i32 %179 to double
  %181 = fdiv nsz double %178, %180
  store double %181, ptr %18, align 8, !tbaa !53
  %182 = load i64, ptr %13, align 8, !tbaa !39
  %183 = icmp eq i64 %182, 1
  br i1 %183, label %184, label %189

184:                                              ; preds = %177
  %185 = load double, ptr %18, align 8, !tbaa !53
  %186 = fcmp nsz oeq double %185, 0x43F0000000000000
  br i1 %186, label %187, label %189

187:                                              ; preds = %184
  %188 = load ptr, ptr %10, align 8, !tbaa !4
  store i64 -1, ptr %188, align 8, !tbaa !39
  br label %207

189:                                              ; preds = %184, %177
  %190 = load double, ptr %18, align 8, !tbaa !53
  %191 = fcmp nsz ogt double %190, 0x43E0000000000000
  br i1 %191, label %192, label %200

192:                                              ; preds = %189
  %193 = load double, ptr %18, align 8, !tbaa !53
  %194 = fsub nsz double %193, 0x43E0000000000000
  %195 = call i64 @llvm.llrint.i64.f64(double %194)
  %196 = add i64 %195, -9223372036854775808
  %197 = load i64, ptr %13, align 8, !tbaa !39
  %198 = mul i64 %196, %197
  %199 = load ptr, ptr %10, align 8, !tbaa !4
  store i64 %198, ptr %199, align 8, !tbaa !39
  br label %206

200:                                              ; preds = %189
  %201 = load double, ptr %18, align 8, !tbaa !53
  %202 = call i64 @llvm.llrint.i64.f64(double %201)
  %203 = load i64, ptr %13, align 8, !tbaa !39
  %204 = mul nsw i64 %202, %203
  %205 = load ptr, ptr %10, align 8, !tbaa !4
  store i64 %204, ptr %205, align 8, !tbaa !39
  br label %206

206:                                              ; preds = %200, %192
  br label %207

207:                                              ; preds = %206, %187
  store i32 2, ptr %15, align 4
  call void @llvm.lifetime.end.p0(i64 8, ptr %18) #11
  br label %255

208:                                              ; preds = %126
  %209 = load double, ptr %11, align 8, !tbaa !53
  %210 = load i64, ptr %13, align 8, !tbaa !39
  %211 = sitofp i64 %210 to double
  %212 = fmul nsz double %209, %211
  %213 = load i32, ptr %12, align 4, !tbaa !20
  %214 = sitofp i32 %213 to double
  %215 = fdiv nsz double %212, %214
  %216 = fptrunc nsz double %215 to float
  %217 = load ptr, ptr %10, align 8, !tbaa !4
  store float %216, ptr %217, align 4, !tbaa !76
  br label %255

218:                                              ; preds = %126
  %219 = load double, ptr %11, align 8, !tbaa !53
  %220 = load i64, ptr %13, align 8, !tbaa !39
  %221 = sitofp i64 %220 to double
  %222 = fmul nsz double %219, %221
  %223 = load i32, ptr %12, align 4, !tbaa !20
  %224 = sitofp i32 %223 to double
  %225 = fdiv nsz double %222, %224
  %226 = load ptr, ptr %10, align 8, !tbaa !4
  store double %225, ptr %226, align 8, !tbaa !53
  br label %255

227:                                              ; preds = %126, %126
  %228 = load double, ptr %11, align 8, !tbaa !53
  %229 = fptosi double %228 to i32
  %230 = sitofp i32 %229 to double
  %231 = load double, ptr %11, align 8, !tbaa !53
  %232 = fcmp nsz oeq double %230, %231
  br i1 %232, label %233, label %243

233:                                              ; preds = %227
  %234 = load ptr, ptr %10, align 8, !tbaa !4
  %235 = getelementptr inbounds nuw %struct.AVRational, ptr %19, i32 0, i32 0
  %236 = load double, ptr %11, align 8, !tbaa !53
  %237 = load i64, ptr %13, align 8, !tbaa !39
  %238 = sitofp i64 %237 to double
  %239 = fmul nsz double %236, %238
  %240 = fptosi double %239 to i32
  store i32 %240, ptr %235, align 4, !tbaa !48
  %241 = getelementptr inbounds nuw %struct.AVRational, ptr %19, i32 0, i32 1
  %242 = load i32, ptr %12, align 4, !tbaa !20
  store i32 %242, ptr %241, align 4, !tbaa !46
  call void @llvm.memcpy.p0.p0.i64(ptr align 4 %234, ptr align 4 %19, i64 8, i1 false), !tbaa.struct !79
  br label %253

243:                                              ; preds = %227
  %244 = load ptr, ptr %10, align 8, !tbaa !4
  call void @llvm.lifetime.start.p0(i64 8, ptr %20) #11
  %245 = load double, ptr %11, align 8, !tbaa !53
  %246 = load i64, ptr %13, align 8, !tbaa !39
  %247 = sitofp i64 %246 to double
  %248 = fmul nsz double %245, %247
  %249 = load i32, ptr %12, align 4, !tbaa !20
  %250 = sitofp i32 %249 to double
  %251 = fdiv nsz double %248, %250
  %252 = call i64 @double_to_rational(double noundef %251)
  store i64 %252, ptr %20, align 4
  call void @llvm.memcpy.p0.p0.i64(ptr align 4 %244, ptr align 4 %20, i64 8, i1 false), !tbaa.struct !79
  call void @llvm.lifetime.end.p0(i64 8, ptr %20) #11
  br label %253

253:                                              ; preds = %243, %233
  br label %255

254:                                              ; preds = %126
  store i32 -22, ptr %7, align 4
  store i32 1, ptr %15, align 4
  br label %256

255:                                              ; preds = %253, %218, %208, %207, %176, %148, %138, %128
  store i32 0, ptr %7, align 4
  store i32 1, ptr %15, align 4
  br label %256

256:                                              ; preds = %255, %254, %123, %75
  call void @llvm.lifetime.end.p0(i64 4, ptr %14) #11
  %257 = load i32, ptr %7, align 4
  ret i32 %257
}