; Function Attrs: nounwind uwtable
define internal fastcc range(i32 -34, 1) i32 @write_number(ptr noundef %0, ptr noundef readonly captures(none) %1, ptr noundef writeonly captures(none) %2, double noundef %3, i32 noundef %4, i64 noundef %5) unnamed_addr #2 {
  %7 = getelementptr inbounds nuw i8, ptr %1, i64 20
  %8 = load i32, ptr %7, align 4, !tbaa !18
  %9 = and i32 %8, -65537
  %cond = icmp eq i32 %9, 1
  br i1 %cond, label %._crit_edge, label %10

._crit_edge:                                      ; preds = %6
  %.pre104 = sitofp i64 %5 to double
  %.pre106 = fmul nsz double %3, %.pre104
  %.pre108 = sitofp i32 %4 to double
  br label %37

10:                                               ; preds = %6
  %.not100 = icmp eq i32 %4, 0
  br i1 %.not100, label %.critedge, label %11

11:                                               ; preds = %10
  %12 = getelementptr inbounds nuw i8, ptr %1, i64 40
  %13 = load double, ptr %12, align 8, !tbaa !40
  %14 = sitofp i32 %4 to double
  %15 = fmul nsz double %13, %14
  %16 = sitofp i64 %5 to double
  %17 = fmul nsz double %3, %16
  %18 = fcmp nsz olt double %15, %17
  br i1 %18, label %24, label %19

19:                                               ; preds = %11
  %20 = getelementptr inbounds nuw i8, ptr %1, i64 32
  %21 = load double, ptr %20, align 8, !tbaa !39
  %22 = fmul nsz double %21, %14
  %23 = fcmp nsz ogt double %22, %17
  br i1 %23, label %24, label %36

24:                                               ; preds = %11, %19
  %25 = fdiv nsz double %17, %14
  br label %30

.critedge:                                        ; preds = %10
  %26 = fcmp nsz une double %3, 0.000000e+00
  %27 = icmp ne i64 %5, 0
  %28 = and i1 %26, %27
  %29 = select i1 %28, double 0x7FF0000000000000, double 0x7FF8000000000000
  %.phi.trans.insert = getelementptr inbounds nuw i8, ptr %1, i64 40
  %.pre = load double, ptr %.phi.trans.insert, align 8, !tbaa !40
  br label %30

30:                                               ; preds = %.critedge, %24
  %31 = phi double [ %13, %24 ], [ %.pre, %.critedge ]
  %32 = phi nsz double [ %25, %24 ], [ %29, %.critedge ]
  %33 = load ptr, ptr %1, align 8, !tbaa !14
  %34 = getelementptr inbounds nuw i8, ptr %1, i64 32
  %35 = load double, ptr %34, align 8, !tbaa !39
  tail call void (ptr, i32, ptr, ...) @av_log(ptr noundef %0, i32 noundef 16, ptr noundef nonnull @.str.29, double noundef %32, ptr noundef %33, double noundef %35, double noundef %31) #18
  br label %96

36:                                               ; preds = %19
  switch i32 %9, label %96 [
    i32 1, label %37
    i32 13, label %46
    i32 14, label %51
    i32 18, label %56
    i32 2, label %56
    i32 20, label %56
    i32 16, label %61
    i32 3, label %61
    i32 10, label %67
    i32 5, label %82
    i32 4, label %85
    i32 7, label %87
    i32 15, label %87
  ]

37:                                               ; preds = %._crit_edge, %36
  %.pre-phi109 = phi double [ %.pre108, %._crit_edge ], [ %14, %36 ]
  %.pre-phi107 = phi double [ %.pre106, %._crit_edge ], [ %17, %36 ]
  %38 = fdiv nsz double %.pre-phi107, %.pre-phi109
  %39 = fcmp nsz olt double %38, -1.500000e+00
  %40 = fcmp nsz ogt double %38, 0x41EFFFFFFFF00000
  %or.cond = or i1 %39, %40
  br i1 %or.cond, label %.critedge103, label %41

41:                                               ; preds = %37
  %42 = fmul nsz double %38, 2.560000e+02
  %43 = tail call i64 @llvm.llrint.i64.f64(double %42)
  %44 = and i64 %43, 255
  %.not101 = icmp eq i64 %44, 0
  br i1 %.not101, label %56, label %.critedge103

.critedge103:                                     ; preds = %41, %37
  %45 = load ptr, ptr %1, align 8, !tbaa !14
  tail call void (ptr, i32, ptr, ...) @av_log(ptr noundef %0, i32 noundef 16, ptr noundef nonnull @.str.99, double noundef %38, ptr noundef %45) #18
  br label %96

46:                                               ; preds = %36
  %47 = fdiv nsz double %3, %14
  %48 = tail call i64 @llvm.llrint.i64.f64(double %47)
  %49 = mul nsw i64 %48, %5
  %50 = trunc i64 %49 to i32
  store i32 %50, ptr %2, align 4, !tbaa !26
  br label %96

51:                                               ; preds = %36
  %52 = fdiv nsz double %3, %14
  %53 = tail call i64 @llvm.llrint.i64.f64(double %52)
  %54 = mul nsw i64 %53, %5
  %55 = trunc i64 %54 to i32
  store i32 %55, ptr %2, align 4, !tbaa !26
  br label %96

56:                                               ; preds = %41, %36, %36, %36
  %.pre-phi = phi double [ %.pre-phi109, %41 ], [ %14, %36 ], [ %14, %36 ], [ %14, %36 ]
  %57 = fdiv nsz double %3, %.pre-phi
  %58 = tail call i64 @llvm.llrint.i64.f64(double %57)
  %59 = mul nsw i64 %58, %5
  %60 = trunc i64 %59 to i32
  store i32 %60, ptr %2, align 4, !tbaa !26
  br label %96

61:                                               ; preds = %36, %36
  %62 = fdiv nsz double %3, %14
  %63 = icmp eq i64 %5, 1
  %64 = fcmp nsz oeq double %62, 0x43E0000000000000
  %or.cond3 = and i1 %63, %64
  %65 = tail call i64 @llvm.llrint.i64.f64(double %62)
  %66 = mul nsw i64 %65, %5
  %storemerge = select i1 %or.cond3, i64 9223372036854775807, i64 %66
  store i64 %storemerge, ptr %2, align 8, !tbaa !44
  br label %96

67:                                               ; preds = %36
  %68 = fdiv nsz double %3, %14
  %69 = icmp eq i64 %5, 1
  %70 = fcmp nsz oeq double %68, 0x43F0000000000000
  %or.cond5 = and i1 %69, %70
  br i1 %or.cond5, label %71, label %72

71:                                               ; preds = %67
  store i64 -1, ptr %2, align 8, !tbaa !44
  br label %96

72:                                               ; preds = %67
  %73 = fcmp nsz ogt double %68, 0x43E0000000000000
  br i1 %73, label %74, label %79

74:                                               ; preds = %72
  %75 = fadd nsz double %68, 0xC3E0000000000000
  %76 = tail call i64 @llvm.llrint.i64.f64(double %75)
  %77 = xor i64 %76, -9223372036854775808
  %78 = mul i64 %77, %5
  store i64 %78, ptr %2, align 8, !tbaa !44
  br label %96

79:                                               ; preds = %72
  %80 = tail call i64 @llvm.llrint.i64.f64(double %68)
  %81 = mul nsw i64 %80, %5
  store i64 %81, ptr %2, align 8, !tbaa !44
  br label %96

82:                                               ; preds = %36
  %83 = fdiv nsz double %17, %14
  %84 = fptrunc nsz double %83 to float
  store float %84, ptr %2, align 4, !tbaa !66
  br label %96

85:                                               ; preds = %36
  %86 = fdiv nsz double %17, %14
  store double %86, ptr %2, align 8, !tbaa !49
  br label %96

87:                                               ; preds = %36, %36
  %88 = fptosi double %3 to i32
  %89 = sitofp i32 %88 to double
  %90 = fcmp nsz oeq double %3, %89
  br i1 %90, label %91, label %93

91:                                               ; preds = %87
  %92 = fptosi double %17 to i32
  store i32 %92, ptr %2, align 4, !tbaa !26
  %.sroa.2.0..sroa_idx = getelementptr inbounds nuw i8, ptr %2, i64 4
  store i32 %4, ptr %.sroa.2.0..sroa_idx, align 4, !tbaa !26
  br label %96

93:                                               ; preds = %87
  %94 = fdiv nsz double %17, %14
  %95 = tail call fastcc i64 @double_to_rational(double noundef %94)
  store i64 %95, ptr %2, align 4
  br label %96

96:                                               ; preds = %46, %51, %56, %61, %82, %85, %93, %91, %74, %79, %71, %36, %.critedge103, %30
  %.0 = phi i32 [ -34, %30 ], [ -34, %.critedge103 ], [ -22, %36 ], [ 0, %71 ], [ 0, %79 ], [ 0, %74 ], [ 0, %91 ], [ 0, %93 ], [ 0, %85 ], [ 0, %82 ], [ 0, %61 ], [ 0, %56 ], [ 0, %51 ], [ 0, %46 ]
  ret i32 %.0
}